; Function Attrs: nounwind uwtable
define void @Ivy_FraigExtractCone_rec(ptr noundef %0, ptr noundef captures(none) %1, ptr noundef %2, ptr noundef %3) local_unnamed_addr #2 {
  %5 = getelementptr inbounds nuw i8, ptr %1, i64 8
  %6 = load i32, ptr %5, align 8
  %7 = and i32 %6, 32
  %.not = icmp eq i32 %7, 0
  br i1 %.not, label %8, label %83

8:                                                ; preds = %4
  %9 = or disjoint i32 %6, 32
  store i32 %9, ptr %5, align 8
  %10 = and i32 %6, 15
  %.not25 = icmp eq i32 %10, 1
  br i1 %.not25, label %11, label %42

11:                                               ; preds = %8
  %12 = load i32, ptr %1, align 8, !tbaa !121
  %13 = getelementptr inbounds nuw i8, ptr %2, i64 4
  %14 = load i32, ptr %13, align 4, !tbaa !238
  %15 = load i32, ptr %2, align 8, !tbaa !240
  %16 = icmp eq i32 %14, %15
  br i1 %16, label %17, label %.Vec_IntGrow.exit10_crit_edge.i

.Vec_IntGrow.exit10_crit_edge.i:                  ; preds = %11
  %.phi.trans.insert.i = getelementptr inbounds nuw i8, ptr %2, i64 8
  %.pre.i = load ptr, ptr %.phi.trans.insert.i, align 8, !tbaa !241
  br label %Vec_IntPush.exit

17:                                               ; preds = %11
  %18 = icmp slt i32 %14, 16
  br i1 %18, label %19, label %27

19:                                               ; preds = %17
  %20 = getelementptr inbounds nuw i8, ptr %2, i64 8
  %21 = load ptr, ptr %20, align 8, !tbaa !241
  %.not9.i.i = icmp eq ptr %21, null
  br i1 %.not9.i.i, label %24, label %22

22:                                               ; preds = %19
  %23 = tail call dereferenceable_or_null(64) ptr @realloc(ptr noundef nonnull %21, i64 noundef 64) #29
  br label %Vec_IntGrow.exit.i

24:                                               ; preds = %19
  %25 = tail call noalias dereferenceable_or_null(64) ptr @malloc(i64 noundef 64) #27
  br label %Vec_IntGrow.exit.i

Vec_IntGrow.exit.i:                               ; preds = %24, %22
  %26 = phi ptr [ %23, %22 ], [ %25, %24 ]
  store ptr %26, ptr %20, align 8, !tbaa !241
  store i32 16, ptr %2, align 8, !tbaa !240
  br label %Vec_IntPush.exit

27:                                               ; preds = %17
  %28 = shl nuw nsw i32 %14, 1
  %29 = getelementptr inbounds nuw i8, ptr %2, i64 8
  %30 = load ptr, ptr %29, align 8, !tbaa !241
  %.not9.i9.i = icmp eq ptr %30, null
  %31 = zext nneg i32 %28 to i64
  %32 = shl nuw nsw i64 %31, 2
  br i1 %.not9.i9.i, label %35, label %33

33:                                               ; preds = %27
  %34 = tail call ptr @realloc(ptr noundef nonnull %30, i64 noundef %32) #29
  br label %37

35:                                               ; preds = %27
  %36 = tail call noalias ptr @malloc(i64 noundef %32) #27
  br label %37

37:                                               ; preds = %35, %33
  %38 = phi ptr [ %34, %33 ], [ %36, %35 ]
  store ptr %38, ptr %29, align 8, !tbaa !241
  store i32 %28, ptr %2, align 8, !tbaa !240
  br label %Vec_IntPush.exit

Vec_IntPush.exit:                                 ; preds = %.Vec_IntGrow.exit10_crit_edge.i, %Vec_IntGrow.exit.i, %37
  %39 = phi ptr [ %.pre.i, %.Vec_IntGrow.exit10_crit_edge.i ], [ %38, %37 ], [ %26, %Vec_IntGrow.exit.i ]
  %40 = load i32, ptr %13, align 4, !tbaa !238
  %41 = add nsw i32 %40, 1
  store i32 %41, ptr %13, align 4, !tbaa !238
  br label %.sink.split

42:                                               ; preds = %8
  %43 = getelementptr i8, ptr %1, i64 16
  %.val = load ptr, ptr %43, align 8, !tbaa !52
  %44 = ptrtoint ptr %.val to i64
  %45 = and i64 %44, -2
  %46 = inttoptr i64 %45 to ptr
  tail call void @Ivy_FraigExtractCone_rec(ptr noundef %0, ptr noundef %46, ptr noundef %2, ptr noundef %3)
  %47 = getelementptr i8, ptr %1, i64 24
  %.val16 = load ptr, ptr %47, align 8, !tbaa !91
  %48 = ptrtoint ptr %.val16 to i64
  %49 = and i64 %48, -2
  %50 = inttoptr i64 %49 to ptr
  tail call void @Ivy_FraigExtractCone_rec(ptr noundef %0, ptr noundef %50, ptr noundef %2, ptr noundef %3)
  %51 = load i32, ptr %1, align 8, !tbaa !121
  %52 = getelementptr inbounds nuw i8, ptr %3, i64 4
  %53 = load i32, ptr %52, align 4, !tbaa !238
  %54 = load i32, ptr %3, align 8, !tbaa !240
  %55 = icmp eq i32 %53, %54
  br i1 %55, label %56, label %.Vec_IntGrow.exit10_crit_edge.i18

.Vec_IntGrow.exit10_crit_edge.i18:                ; preds = %42
  %.phi.trans.insert.i19 = getelementptr inbounds nuw i8, ptr %3, i64 8
  %.pre.i20 = load ptr, ptr %.phi.trans.insert.i19, align 8, !tbaa !241
  br label %Vec_IntPush.exit24

56:                                               ; preds = %42
  %57 = icmp slt i32 %53, 16
  br i1 %57, label %58, label %66

58:                                               ; preds = %56
  %59 = getelementptr inbounds nuw i8, ptr %3, i64 8
  %60 = load ptr, ptr %59, align 8, !tbaa !241
  %.not9.i.i22 = icmp eq ptr %60, null
  br i1 %.not9.i.i22, label %63, label %61

61:                                               ; preds = %58
  %62 = tail call dereferenceable_or_null(64) ptr @realloc(ptr noundef nonnull %60, i64 noundef 64) #29
  br label %Vec_IntGrow.exit.i23

63:                                               ; preds = %58
  %64 = tail call noalias dereferenceable_or_null(64) ptr @malloc(i64 noundef 64) #27
  br label %Vec_IntGrow.exit.i23

Vec_IntGrow.exit.i23:                             ; preds = %63, %61
  %65 = phi ptr [ %62, %61 ], [ %64, %63 ]
  store ptr %65, ptr %59, align 8, !tbaa !241
  store i32 16, ptr %3, align 8, !tbaa !240
  br label %Vec_IntPush.exit24

66:                                               ; preds = %56
  %67 = shl nuw nsw i32 %53, 1
  %68 = getelementptr inbounds nuw i8, ptr %3, i64 8
  %69 = load ptr, ptr %68, align 8, !tbaa !241
  %.not9.i9.i21 = icmp eq ptr %69, null
  %70 = zext nneg i32 %67 to i64
  %71 = shl nuw nsw i64 %70, 2
  br i1 %.not9.i9.i21, label %74, label %72

72:                                               ; preds = %66
  %73 = tail call ptr @realloc(ptr noundef nonnull %69, i64 noundef %71) #29
  br label %76

74:                                               ; preds = %66
  %75 = tail call noalias ptr @malloc(i64 noundef %71) #27
  br label %76

76:                                               ; preds = %74, %72
  %77 = phi ptr [ %73, %72 ], [ %75, %74 ]
  store ptr %77, ptr %68, align 8, !tbaa !241
  store i32 %67, ptr %3, align 8, !tbaa !240
  br label %Vec_IntPush.exit24

Vec_IntPush.exit24:                               ; preds = %.Vec_IntGrow.exit10_crit_edge.i18, %Vec_IntGrow.exit.i23, %76
  %78 = phi ptr [ %.pre.i20, %.Vec_IntGrow.exit10_crit_edge.i18 ], [ %77, %76 ], [ %65, %Vec_IntGrow.exit.i23 ]
  %79 = load i32, ptr %52, align 4, !tbaa !238
  %80 = add nsw i32 %79, 1
  store i32 %80, ptr %52, align 4, !tbaa !238
  br label %.sink.split

.sink.split:                                      ; preds = %Vec_IntPush.exit, %Vec_IntPush.exit24
  %.sink29 = phi i32 [ %79, %Vec_IntPush.exit24 ], [ %40, %Vec_IntPush.exit ]
  %.sink27 = phi ptr [ %78, %Vec_IntPush.exit24 ], [ %39, %Vec_IntPush.exit ]
  %.sink = phi i32 [ %51, %Vec_IntPush.exit24 ], [ %12, %Vec_IntPush.exit ]
  %81 = sext i32 %.sink29 to i64
  %82 = getelementptr inbounds i32, ptr %.sink27, i64 %81
  store i32 %.sink, ptr %82, align 4, !tbaa !38
  br label %83

83:                                               ; preds = %.sink.split, %4
  ret void
}